target datalayout = "e-m:e-p270:32:32-p271:32:32-p272:64:64-i64:64-i128:128-f80:128-n8:16:32:64-S128"
target triple = "x86_64-pc-linux-gnu"

%class.basic_csr_t = type { %class.csr_t.base, i64 }
%class.csr_t.base = type <{ ptr, ptr, ptr, i64, i32, i8 }>
%class.masked_csr_t = type { %class.basic_csr_t, i64 }

; Function Attrs: mustprogress nounwind uwtable
define noundef zeroext i1 @_ZN11basic_csr_t14unlogged_writeEm(ptr noundef nonnull align 8 dereferenceable(48) %0, i64 noundef %1) unnamed_addr #5 align 2 {
  %3 = alloca ptr, align 8
  %4 = alloca i64, align 8
  store ptr %0, ptr %3, align 8, !tbaa !166
  store i64 %1, ptr %4, align 8, !tbaa !10
  %5 = load ptr, ptr %3, align 8
  %6 = load i64, ptr %4, align 8, !tbaa !10
  %7 = getelementptr inbounds nuw %class.basic_csr_t, ptr %5, i32 0, i32 1
  store i64 %6, ptr %7, align 8, !tbaa !168
  ret i1 true
}

; Function Attrs: mustprogress nounwind uwtable
define noundef zeroext i1 @_ZN12masked_csr_t14unlogged_writeEm(ptr noundef nonnull align 8 dereferenceable(56) %0, i64 noundef %1) unnamed_addr #5 align 2 {
  %3 = alloca ptr, align 8
  %4 = alloca i64, align 8
  store ptr %0, ptr %3, align 8, !tbaa !298
  store i64 %1, ptr %4, align 8, !tbaa !10
  %5 = load ptr, ptr %3, align 8
  %6 = load ptr, ptr %5, align 8, !tbaa !12
  %7 = getelementptr inbounds ptr, ptr %6, i64 1
  %8 = load ptr, ptr %7, align 8
  %9 = call noundef i64 %8(ptr noundef nonnull align 8 dereferenceable(48) %5) #3
  %10 = getelementptr inbounds nuw %class.masked_csr_t, ptr %5, i32 0, i32 1
  %11 = load i64, ptr %10, align 8, !tbaa !300
  %12 = xor i64 %11, -1
  %13 = and i64 %9, %12
  %14 = load i64, ptr %4, align 8, !tbaa !10
  %15 = getelementptr inbounds nuw %class.masked_csr_t, ptr %5, i32 0, i32 1
  %16 = load i64, ptr %15, align 8, !tbaa !300
  %17 = and i64 %14, %16
  %18 = or i64 %13, %17
  %19 = call noundef zeroext i1 @_ZN11basic_csr_t14unlogged_writeEm(ptr noundef nonnull align 8 dereferenceable(48) %5, i64 noundef %18) #3
  ret i1 %19
}