; Function Attrs: mustprogress nounwind uwtable
define noundef zeroext i1 @_ZN12masked_csr_t14unlogged_writeEm(ptr noundef nonnull align 8 dereferenceable(56) %0, i64 noundef %1) unnamed_addr #7 align 2 {
  %3 = load ptr, ptr %0, align 8, !tbaa !3
  %4 = getelementptr inbounds nuw i8, ptr %3, i64 8
  %5 = load ptr, ptr %4, align 8
  %6 = tail call noundef i64 %5(ptr noundef nonnull align 8 dereferenceable(48) %0) #30
  %7 = getelementptr inbounds nuw i8, ptr %0, i64 48
  %8 = load i64, ptr %7, align 8, !tbaa !228
  %9 = xor i64 %8, -1
  %10 = and i64 %6, %9
  %11 = and i64 %8, %1
  %12 = or i64 %10, %11
  %13 = getelementptr inbounds nuw i8, ptr %0, i64 40
  store i64 %12, ptr %13, align 8, !tbaa !159
  ret i1 true
}